target datalayout = "e-m:e-p270:32:32-p271:32:32-p272:64:64-i64:64-i128:128-f80:128-n8:16:32:64-S128"
target triple = "x86_64-pc-linux-gnu"

%struct.nghttp2_frame_hd = type { i64, i32, i8, i8, i8 }
%struct.nghttp2_push_promise = type { %struct.nghttp2_frame_hd, i64, ptr, i64, i32, i8 }

; Function Attrs: nounwind uwtable
define hidden void @nghttp2_frame_unpack_push_promise_payload(ptr noundef %0, ptr noundef %1) #0 {
  %3 = alloca ptr, align 8
  %4 = alloca ptr, align 8
  store ptr %0, ptr %3, align 8, !tbaa !8
  store ptr %1, ptr %4, align 8, !tbaa !3
  %5 = load ptr, ptr %4, align 8, !tbaa !3
  %6 = call i32 @nghttp2_get_uint32(ptr noundef %5)
  %7 = and i32 %6, 2147483647
  %8 = load ptr, ptr %3, align 8, !tbaa !8
  %9 = getelementptr inbounds nuw %struct.nghttp2_push_promise, ptr %8, i32 0, i32 4
  store i32 %7, ptr %9, align 8, !tbaa !36
  %10 = load ptr, ptr %3, align 8, !tbaa !8
  %11 = getelementptr inbounds nuw %struct.nghttp2_push_promise, ptr %10, i32 0, i32 2
  store ptr null, ptr %11, align 8, !tbaa !34
  %12 = load ptr, ptr %3, align 8, !tbaa !8
  %13 = getelementptr inbounds nuw %struct.nghttp2_push_promise, ptr %12, i32 0, i32 3
  store i64 0, ptr %13, align 8, !tbaa !35
  ret void
}