; Function Attrs: nounwind uwtable
define hidden void @nghttp2_frame_unpack_push_promise_payload(ptr noundef writeonly captures(none) initializes((24, 44)) %0, ptr noundef %1) local_unnamed_addr #0 {
  %3 = tail call i32 @nghttp2_get_uint32(ptr noundef %1) #18
  %4 = and i32 %3, 2147483647
  %5 = getelementptr inbounds nuw i8, ptr %0, i64 40
  store i32 %4, ptr %5, align 8, !tbaa !32
  %6 = getelementptr inbounds nuw i8, ptr %0, i64 24
  tail call void @llvm.memset.p0.i64(ptr noundef nonnull align 8 dereferenceable(16) %6, i8 0, i64 16, i1 false)
  ret void
}